target datalayout = "e-m:e-p270:32:32-p271:32:32-p272:64:64-i64:64-i128:128-f80:128-n8:16:32:64-S128"
target triple = "x86_64-pc-linux-gnu"

%struct._lv_array_t = type { ptr, i32, i32, i32, i8 }
%struct.lv_event_list_t = type { %struct._lv_array_t, i8 }
%struct._lv_event_dsc_t = type { ptr, ptr, i32 }

; Function Attrs: nounwind uwtable
define internal ptr @event_array_at(ptr noundef %0, i32 noundef %1) #0 {
  %3 = alloca ptr, align 8
  %4 = alloca i32, align 4
  store ptr %0, ptr %3, align 8, !tbaa !33
  store i32 %1, ptr %4, align 4, !tbaa !37
  %5 = load ptr, ptr %3, align 8, !tbaa !33
  %6 = getelementptr inbounds nuw %struct.lv_event_list_t, ptr %5, i32 0, i32 0
  %7 = load i32, ptr %4, align 4, !tbaa !37
  %8 = call ptr @lv_array_at(ptr noundef %6, i32 noundef %7)
  ret ptr %8
}

; Function Attrs: nounwind uwtable
define internal void @cleanup_event_list(ptr noundef %0) #0 {
  %2 = alloca ptr, align 8
  store ptr %0, ptr %2, align 8, !tbaa !33
  %3 = load ptr, ptr %2, align 8, !tbaa !33
  %4 = getelementptr inbounds nuw %struct.lv_event_list_t, ptr %3, i32 0, i32 1
  %5 = load i8, ptr %4, align 8
  %6 = and i8 %5, 1
  %7 = icmp ne i8 %6, 0
  br i1 %7, label %8, label %9

8:                                                ; preds = %1
  br label %26

9:                                                ; preds = %1
  %10 = load ptr, ptr %2, align 8, !tbaa !33
  %11 = getelementptr inbounds nuw %struct.lv_event_list_t, ptr %10, i32 0, i32 1
  %12 = load i8, ptr %11, align 8
  %13 = lshr i8 %12, 1
  %14 = and i8 %13, 1
  %15 = zext i8 %14 to i32
  %16 = icmp eq i32 %15, 0
  br i1 %16, label %17, label %18

17:                                               ; preds = %9
  br label %26

18:                                               ; preds = %9
  %19 = load ptr, ptr %2, align 8, !tbaa !33
  %20 = getelementptr inbounds nuw %struct.lv_event_list_t, ptr %19, i32 0, i32 0
  call void @cleanup_event_list_core(ptr noundef %20)
  %21 = load ptr, ptr %2, align 8, !tbaa !33
  %22 = getelementptr inbounds nuw %struct.lv_event_list_t, ptr %21, i32 0, i32 1
  %23 = load i8, ptr %22, align 8
  %24 = and i8 %23, -3
  %25 = or i8 %24, 0
  store i8 %25, ptr %22, align 8
  br label %26

26:                                               ; preds = %18, %17, %8
  ret void
}

; Function Attrs: nounwind uwtable
define internal void @event_mark_deleting(ptr noundef %0, ptr noundef %1) #0 {
  %3 = alloca ptr, align 8
  %4 = alloca ptr, align 8
  store ptr %0, ptr %3, align 8, !tbaa !33
  store ptr %1, ptr %4, align 8, !tbaa !38
  %5 = load ptr, ptr %3, align 8, !tbaa !33
  %6 = getelementptr inbounds nuw %struct.lv_event_list_t, ptr %5, i32 0, i32 1
  %7 = load i8, ptr %6, align 8
  %8 = and i8 %7, -3
  %9 = or i8 %8, 2
  store i8 %9, ptr %6, align 8
  %10 = load ptr, ptr %4, align 8, !tbaa !38
  %11 = getelementptr inbounds nuw %struct._lv_event_dsc_t, ptr %10, i32 0, i32 2
  %12 = load i32, ptr %11, align 8, !tbaa !42
  %13 = or i32 %12, 65536
  store i32 %13, ptr %11, align 8, !tbaa !42
  ret void
}

; Function Attrs: nounwind uwtable
define ptr @lv_event_get_dsc(ptr noundef %0, i32 noundef %1) #0 {
  %3 = alloca ptr, align 8
  %4 = alloca i32, align 4
  %5 = alloca ptr, align 8
  store ptr %0, ptr %3, align 8, !tbaa !33
  store i32 %1, ptr %4, align 4, !tbaa !37
  br label %6

6:                                                ; preds = %2
  %7 = load ptr, ptr %3, align 8, !tbaa !33
  %8 = icmp ne ptr %7, null
  br i1 %8, label %13, label %9

9:                                                ; preds = %6
  br label %10

10:                                               ; preds = %9
  br label %11

11:                                               ; preds = %10
  br label %12

12:                                               ; preds = %11, %12
  br label %12

13:                                               ; preds = %6
  br label %14

14:                                               ; preds = %13
  call void @llvm.lifetime.start.p0(i64 8, ptr %5) #4
  %15 = load ptr, ptr %3, align 8, !tbaa !33
  %16 = load i32, ptr %4, align 4, !tbaa !37
  %17 = call ptr @event_array_at(ptr noundef %15, i32 noundef %16)
  store ptr %17, ptr %5, align 8, !tbaa !52
  %18 = load ptr, ptr %5, align 8, !tbaa !52
  %19 = icmp ne ptr %18, null
  br i1 %19, label %20, label %23

20:                                               ; preds = %14
  %21 = load ptr, ptr %5, align 8, !tbaa !52
  %22 = load ptr, ptr %21, align 8, !tbaa !38
  br label %24

23:                                               ; preds = %14
  br label %24

24:                                               ; preds = %23, %20
  %25 = phi ptr [ %22, %20 ], [ null, %23 ]
  call void @llvm.lifetime.end.p0(i64 8, ptr %5) #4
  ret ptr %25
}

; Function Attrs: nounwind uwtable
define zeroext i1 @lv_event_remove(ptr noundef %0, i32 noundef %1) #0 {
  %3 = alloca i1, align 1
  %4 = alloca ptr, align 8
  %5 = alloca i32, align 4
  %6 = alloca ptr, align 8
  %7 = alloca i32, align 4
  store ptr %0, ptr %4, align 8, !tbaa !33
  store i32 %1, ptr %5, align 4, !tbaa !37
  br label %8

8:                                                ; preds = %2
  %9 = load ptr, ptr %4, align 8, !tbaa !33
  %10 = icmp ne ptr %9, null
  br i1 %10, label %15, label %11

11:                                               ; preds = %8
  br label %12

12:                                               ; preds = %11
  br label %13

13:                                               ; preds = %12
  br label %14

14:                                               ; preds = %13, %14
  br label %14

15:                                               ; preds = %8
  br label %16

16:                                               ; preds = %15
  call void @llvm.lifetime.start.p0(i64 8, ptr %6) #4
  %17 = load ptr, ptr %4, align 8, !tbaa !33
  %18 = load i32, ptr %5, align 4, !tbaa !37
  %19 = call ptr @lv_event_get_dsc(ptr noundef %17, i32 noundef %18)
  store ptr %19, ptr %6, align 8, !tbaa !38
  %20 = load ptr, ptr %6, align 8, !tbaa !38
  %21 = icmp eq ptr %20, null
  br i1 %21, label %22, label %23

22:                                               ; preds = %16
  store i1 false, ptr %3, align 1
  store i32 1, ptr %7, align 4
  br label %27

23:                                               ; preds = %16
  %24 = load ptr, ptr %4, align 8, !tbaa !33
  %25 = load ptr, ptr %6, align 8, !tbaa !38
  call void @event_mark_deleting(ptr noundef %24, ptr noundef %25)
  %26 = load ptr, ptr %4, align 8, !tbaa !33
  call void @cleanup_event_list(ptr noundef %26)
  store i1 true, ptr %3, align 1
  store i32 1, ptr %7, align 4
  br label %27

27:                                               ; preds = %23, %22
  call void @llvm.lifetime.end.p0(i64 8, ptr %6) #4
  %28 = load i1, ptr %3, align 1
  ret i1 %28
}