; Function Attrs: nounwind uwtable
define noundef zeroext i1 @lv_event_remove(ptr noundef %0, i32 noundef %1) local_unnamed_addr #2 {
  %.not = icmp eq ptr %0, null
  br i1 %.not, label %.preheader, label %3

.preheader:                                       ; preds = %2, %.preheader
  br label %.preheader

3:                                                ; preds = %2
  %4 = tail call ptr @lv_array_at(ptr noundef nonnull %0, i32 noundef %1) #12
  %.not5.i = icmp eq ptr %4, null
  br i1 %.not5.i, label %cleanup_event_list.exit, label %lv_event_get_dsc.exit

lv_event_get_dsc.exit:                            ; preds = %3
  %5 = load ptr, ptr %4, align 8, !tbaa !36
  %.not9 = icmp eq ptr %5, null
  br i1 %.not9, label %cleanup_event_list.exit, label %6

6:                                                ; preds = %lv_event_get_dsc.exit
  %7 = getelementptr inbounds nuw i8, ptr %0, i64 24
  %8 = load i8, ptr %7, align 8
  %9 = or i8 %8, 2
  store i8 %9, ptr %7, align 8
  %10 = getelementptr inbounds nuw i8, ptr %5, i64 16
  %11 = load i32, ptr %10, align 8, !tbaa !40
  %12 = or i32 %11, 65536
  store i32 %12, ptr %10, align 8, !tbaa !40
  %13 = load i8, ptr %7, align 8
  %14 = and i8 %13, 3
  %or.cond.not.i = icmp eq i8 %14, 2
  br i1 %or.cond.not.i, label %15, label %cleanup_event_list.exit

15:                                               ; preds = %6
  tail call fastcc void @cleanup_event_list_core(ptr noundef nonnull %0)
  %16 = load i8, ptr %7, align 8
  %17 = and i8 %16, -3
  store i8 %17, ptr %7, align 8
  br label %cleanup_event_list.exit

cleanup_event_list.exit:                          ; preds = %3, %15, %6, %lv_event_get_dsc.exit
  %18 = phi i1 [ false, %lv_event_get_dsc.exit ], [ true, %6 ], [ true, %15 ], [ false, %3 ]
  ret i1 %18
}